target datalayout = "e-m:e-p270:32:32-p271:32:32-p272:64:64-i64:64-i128:128-f80:128-n8:16:32:64-S128"
target triple = "x86_64-pc-linux-gnu"

; Function Attrs: nounwind uwtable
define internal i32 @x509_write_time(ptr noundef %0, ptr noundef %1, ptr noundef %2, i64 noundef %3) #0 {
  %5 = alloca i32, align 4
  %6 = alloca ptr, align 8
  %7 = alloca ptr, align 8
  %8 = alloca ptr, align 8
  %9 = alloca i64, align 8
  %10 = alloca i32, align 4
  %11 = alloca i64, align 8
  %12 = alloca i32, align 4
  store ptr %0, ptr %6, align 8, !tbaa !45
  store ptr %1, ptr %7, align 8, !tbaa !19
  store ptr %2, ptr %8, align 8, !tbaa !19
  store i64 %3, ptr %9, align 8, !tbaa !23
  call void @llvm.lifetime.start.p0(i64 4, ptr %10) #8
  store i32 -110, ptr %10, align 4, !tbaa !14
  call void @llvm.lifetime.start.p0(i64 8, ptr %11) #8
  store i64 0, ptr %11, align 8, !tbaa !23
  %13 = load ptr, ptr %8, align 8, !tbaa !19
  %14 = getelementptr inbounds i8, ptr %13, i64 0
  %15 = load i8, ptr %14, align 1, !tbaa !25
  %16 = sext i8 %15 to i32
  %17 = icmp slt i32 %16, 50
  br i1 %17, label %36, label %18

18:                                               ; preds = %4
  %19 = load ptr, ptr %8, align 8, !tbaa !19
  %20 = getelementptr inbounds i8, ptr %19, i64 0
  %21 = load i8, ptr %20, align 1, !tbaa !25
  %22 = sext i8 %21 to i32
  %23 = icmp eq i32 %22, 50
  br i1 %23, label %24, label %87

24:                                               ; preds = %18
  %25 = load ptr, ptr %8, align 8, !tbaa !19
  %26 = getelementptr inbounds i8, ptr %25, i64 1
  %27 = load i8, ptr %26, align 1, !tbaa !25
  %28 = sext i8 %27 to i32
  %29 = icmp eq i32 %28, 48
  br i1 %29, label %30, label %87

30:                                               ; preds = %24
  %31 = load ptr, ptr %8, align 8, !tbaa !19
  %32 = getelementptr inbounds i8, ptr %31, i64 2
  %33 = load i8, ptr %32, align 1, !tbaa !25
  %34 = sext i8 %33 to i32
  %35 = icmp slt i32 %34, 53
  br i1 %35, label %36, label %87

36:                                               ; preds = %30, %4
  br label %37

37:                                               ; preds = %36
  %38 = load ptr, ptr %6, align 8, !tbaa !45
  %39 = load ptr, ptr %7, align 8, !tbaa !19
  %40 = load ptr, ptr %8, align 8, !tbaa !19
  %41 = getelementptr inbounds i8, ptr %40, i64 2
  %42 = load i64, ptr %9, align 8, !tbaa !23
  %43 = sub i64 %42, 2
  %44 = call i32 @mbedtls_asn1_write_raw_buffer(ptr noundef %38, ptr noundef %39, ptr noundef %41, i64 noundef %43)
  store i32 %44, ptr %10, align 4, !tbaa !14
  %45 = icmp slt i32 %44, 0
  br i1 %45, label %46, label %48

46:                                               ; preds = %37
  %47 = load i32, ptr %10, align 4, !tbaa !14
  store i32 %47, ptr %5, align 4
  store i32 1, ptr %12, align 4
  br label %139

48:                                               ; preds = %37
  %49 = load i32, ptr %10, align 4, !tbaa !14
  %50 = sext i32 %49 to i64
  %51 = load i64, ptr %11, align 8, !tbaa !23
  %52 = add i64 %51, %50
  store i64 %52, ptr %11, align 8, !tbaa !23
  br label %53

53:                                               ; preds = %48
  br label %54

54:                                               ; preds = %53
  br label %55

55:                                               ; preds = %54
  br label %56

56:                                               ; preds = %55
  %57 = load ptr, ptr %6, align 8, !tbaa !45
  %58 = load ptr, ptr %7, align 8, !tbaa !19
  %59 = load i64, ptr %11, align 8, !tbaa !23
  %60 = call i32 @mbedtls_asn1_write_len(ptr noundef %57, ptr noundef %58, i64 noundef %59)
  store i32 %60, ptr %10, align 4, !tbaa !14
  %61 = icmp slt i32 %60, 0
  br i1 %61, label %62, label %64

62:                                               ; preds = %56
  %63 = load i32, ptr %10, align 4, !tbaa !14
  store i32 %63, ptr %5, align 4
  store i32 1, ptr %12, align 4
  br label %139

64:                                               ; preds = %56
  %65 = load i32, ptr %10, align 4, !tbaa !14
  %66 = sext i32 %65 to i64
  %67 = load i64, ptr %11, align 8, !tbaa !23
  %68 = add i64 %67, %66
  store i64 %68, ptr %11, align 8, !tbaa !23
  br label %69

69:                                               ; preds = %64
  br label %70

70:                                               ; preds = %69
  br label %71

71:                                               ; preds = %70
  br label %72

72:                                               ; preds = %71
  %73 = load ptr, ptr %6, align 8, !tbaa !45
  %74 = load ptr, ptr %7, align 8, !tbaa !19
  %75 = call i32 @mbedtls_asn1_write_tag(ptr noundef %73, ptr noundef %74, i8 noundef zeroext 23)
  store i32 %75, ptr %10, align 4, !tbaa !14
  %76 = icmp slt i32 %75, 0
  br i1 %76, label %77, label %79

77:                                               ; preds = %72
  %78 = load i32, ptr %10, align 4, !tbaa !14
  store i32 %78, ptr %5, align 4
  store i32 1, ptr %12, align 4
  br label %139

79:                                               ; preds = %72
  %80 = load i32, ptr %10, align 4, !tbaa !14
  %81 = sext i32 %80 to i64
  %82 = load i64, ptr %11, align 8, !tbaa !23
  %83 = add i64 %82, %81
  store i64 %83, ptr %11, align 8, !tbaa !23
  br label %84

84:                                               ; preds = %79
  br label %85

85:                                               ; preds = %84
  br label %86

86:                                               ; preds = %85
  br label %136

87:                                               ; preds = %30, %24, %18
  br label %88

88:                                               ; preds = %87
  %89 = load ptr, ptr %6, align 8, !tbaa !45
  %90 = load ptr, ptr %7, align 8, !tbaa !19
  %91 = load ptr, ptr %8, align 8, !tbaa !19
  %92 = load i64, ptr %9, align 8, !tbaa !23
  %93 = call i32 @mbedtls_asn1_write_raw_buffer(ptr noundef %89, ptr noundef %90, ptr noundef %91, i64 noundef %92)
  store i32 %93, ptr %10, align 4, !tbaa !14
  %94 = icmp slt i32 %93, 0
  br i1 %94, label %95, label %97

95:                                               ; preds = %88
  %96 = load i32, ptr %10, align 4, !tbaa !14
  store i32 %96, ptr %5, align 4
  store i32 1, ptr %12, align 4
  br label %139

97:                                               ; preds = %88
  %98 = load i32, ptr %10, align 4, !tbaa !14
  %99 = sext i32 %98 to i64
  %100 = load i64, ptr %11, align 8, !tbaa !23
  %101 = add i64 %100, %99
  store i64 %101, ptr %11, align 8, !tbaa !23
  br label %102

102:                                              ; preds = %97
  br label %103

103:                                              ; preds = %102
  br label %104

104:                                              ; preds = %103
  br label %105

105:                                              ; preds = %104
  %106 = load ptr, ptr %6, align 8, !tbaa !45
  %107 = load ptr, ptr %7, align 8, !tbaa !19
  %108 = load i64, ptr %11, align 8, !tbaa !23
  %109 = call i32 @mbedtls_asn1_write_len(ptr noundef %106, ptr noundef %107, i64 noundef %108)
  store i32 %109, ptr %10, align 4, !tbaa !14
  %110 = icmp slt i32 %109, 0
  br i1 %110, label %111, label %113

111:                                              ; preds = %105
  %112 = load i32, ptr %10, align 4, !tbaa !14
  store i32 %112, ptr %5, align 4
  store i32 1, ptr %12, align 4
  br label %139

113:                                              ; preds = %105
  %114 = load i32, ptr %10, align 4, !tbaa !14
  %115 = sext i32 %114 to i64
  %116 = load i64, ptr %11, align 8, !tbaa !23
  %117 = add i64 %116, %115
  store i64 %117, ptr %11, align 8, !tbaa !23
  br label %118

118:                                              ; preds = %113
  br label %119

119:                                              ; preds = %118
  br label %120

120:                                              ; preds = %119
  br label %121

121:                                              ; preds = %120
  %122 = load ptr, ptr %6, align 8, !tbaa !45
  %123 = load ptr, ptr %7, align 8, !tbaa !19
  %124 = call i32 @mbedtls_asn1_write_tag(ptr noundef %122, ptr noundef %123, i8 noundef zeroext 24)
  store i32 %124, ptr %10, align 4, !tbaa !14
  %125 = icmp slt i32 %124, 0
  br i1 %125, label %126, label %128

126:                                              ; preds = %121
  %127 = load i32, ptr %10, align 4, !tbaa !14
  store i32 %127, ptr %5, align 4
  store i32 1, ptr %12, align 4
  br label %139

128:                                              ; preds = %121
  %129 = load i32, ptr %10, align 4, !tbaa !14
  %130 = sext i32 %129 to i64
  %131 = load i64, ptr %11, align 8, !tbaa !23
  %132 = add i64 %131, %130
  store i64 %132, ptr %11, align 8, !tbaa !23
  br label %133

133:                                              ; preds = %128
  br label %134

134:                                              ; preds = %133
  br label %135

135:                                              ; preds = %134
  br label %136

136:                                              ; preds = %135, %86
  %137 = load i64, ptr %11, align 8, !tbaa !23
  %138 = trunc i64 %137 to i32
  store i32 %138, ptr %5, align 4
  store i32 1, ptr %12, align 4
  br label %139

139:                                              ; preds = %136, %126, %111, %95, %77, %62, %46
  call void @llvm.lifetime.end.p0(i64 8, ptr %11) #8
  call void @llvm.lifetime.end.p0(i64 4, ptr %10) #8
  %140 = load i32, ptr %5, align 4
  ret i32 %140
}