; Function Attrs: nounwind uwtable
define internal fastcc i32 @x509_write_time(ptr noundef nonnull %0, ptr noundef %1, ptr noundef %2) unnamed_addr #2 {
  %4 = load i8, ptr %2, align 1, !tbaa !16
  %5 = icmp slt i8 %4, 50
  br i1 %5, label %16, label %6

6:                                                ; preds = %3
  %7 = icmp eq i8 %4, 50
  br i1 %7, label %8, label %29

8:                                                ; preds = %6
  %9 = getelementptr inbounds nuw i8, ptr %2, i64 1
  %10 = load i8, ptr %9, align 1, !tbaa !16
  %11 = icmp eq i8 %10, 48
  br i1 %11, label %12, label %29

12:                                               ; preds = %8
  %13 = getelementptr inbounds nuw i8, ptr %2, i64 2
  %14 = load i8, ptr %13, align 1, !tbaa !16
  %15 = icmp slt i8 %14, 53
  br i1 %15, label %16, label %29

16:                                               ; preds = %3, %12
  %17 = getelementptr inbounds nuw i8, ptr %2, i64 2
  %18 = tail call i32 @mbedtls_asn1_write_raw_buffer(ptr noundef nonnull %0, ptr noundef %1, ptr noundef nonnull %17, i64 noundef 13) #11
  %19 = icmp slt i32 %18, 0
  br i1 %19, label %41, label %20

20:                                               ; preds = %16
  %21 = zext nneg i32 %18 to i64
  %22 = tail call i32 @mbedtls_asn1_write_len(ptr noundef nonnull %0, ptr noundef %1, i64 noundef %21) #11
  %23 = icmp slt i32 %22, 0
  br i1 %23, label %41, label %24

24:                                               ; preds = %20
  %25 = tail call i32 @mbedtls_asn1_write_tag(ptr noundef nonnull %0, ptr noundef %1, i8 noundef zeroext 23) #11
  %26 = icmp slt i32 %25, 0
  br i1 %26, label %41, label %27

27:                                               ; preds = %24
  %narrow54 = add nuw i32 %22, %18
  %28 = add i32 %narrow54, %25
  br label %41

29:                                               ; preds = %6, %8, %12
  %30 = tail call i32 @mbedtls_asn1_write_raw_buffer(ptr noundef nonnull %0, ptr noundef %1, ptr noundef nonnull %2, i64 noundef 15) #11
  %31 = icmp slt i32 %30, 0
  br i1 %31, label %41, label %32

32:                                               ; preds = %29
  %33 = zext nneg i32 %30 to i64
  %34 = tail call i32 @mbedtls_asn1_write_len(ptr noundef nonnull %0, ptr noundef %1, i64 noundef %33) #11
  %35 = icmp slt i32 %34, 0
  br i1 %35, label %41, label %36

36:                                               ; preds = %32
  %37 = tail call i32 @mbedtls_asn1_write_tag(ptr noundef nonnull %0, ptr noundef %1, i8 noundef zeroext 24) #11
  %38 = icmp slt i32 %37, 0
  br i1 %38, label %41, label %39

39:                                               ; preds = %36
  %narrow = add nuw i32 %34, %30
  %40 = add i32 %narrow, %37
  br label %41

41:                                               ; preds = %27, %39, %36, %32, %29, %24, %20, %16
  %.041 = phi i32 [ %18, %16 ], [ %22, %20 ], [ %25, %24 ], [ %30, %29 ], [ %34, %32 ], [ %37, %36 ], [ %28, %27 ], [ %40, %39 ]
  ret i32 %.041
}